target datalayout = "e-m:e-p270:32:32-p271:32:32-p272:64:64-i64:64-i128:128-f80:128-n8:16:32:64-S128"
target triple = "x86_64-pc-linux-gnu"

@hf_mausb_ep_handle = internal global i32 0, align 4
@hf_mausb_ep_handle_d = internal global i32 0, align 4
@hf_mausb_ep_handle_ep_num = internal global i32 0, align 4
@hf_mausb_ep_handle_dev_addr = internal global i32 0, align 4
@hf_mausb_ep_handle_bus_num = internal global i32 0, align 4
@hf_mausb_stream_id = internal global i32 0, align 4
@hf_mausb_req_id = internal global i32 0, align 4
@hf_mausb_cancel_transfer_rsvd = internal global i32 0, align 4
@hf_mausb_cancel_transfer_status = internal global i32 0, align 4
@hf_mausb_cancel_transfer_rsvd_2 = internal global i32 0, align 4
@hf_mausb_cancel_transfer_seq_num = internal global i32 0, align 4
@hf_mausb_cancel_transfer_byte_offset = internal global i32 0, align 4
@ett_mausb_ep_handle = internal global i32 0, align 4

; Function Attrs: null_pointer_is_valid sspstrong uwtable
define internal i32 @dissect_ep_handle(ptr noundef %0, ptr noundef %1, i32 noundef %2) #1 {
  %4 = alloca ptr, align 8
  %5 = alloca ptr, align 8
  %6 = alloca i32, align 4
  %7 = alloca ptr, align 8
  %8 = alloca ptr, align 8
  store ptr %0, ptr %4, align 8
  store ptr %1, ptr %5, align 8
  store i32 %2, ptr %6, align 4
  call void @llvm.lifetime.start.p0(i64 8, ptr %7) #7
  call void @llvm.lifetime.start.p0(i64 8, ptr %8) #7
  %9 = load ptr, ptr %4, align 8
  %10 = load i32, ptr @hf_mausb_ep_handle, align 4
  %11 = load ptr, ptr %5, align 8
  %12 = load i32, ptr %6, align 4
  %13 = call ptr @proto_tree_add_item(ptr noundef %9, i32 noundef %10, ptr noundef %11, i32 noundef %12, i32 noundef 2, i32 noundef -2147483648)
  store ptr %13, ptr %7, align 8
  %14 = load ptr, ptr %7, align 8
  %15 = load i32, ptr @ett_mausb_ep_handle, align 4
  %16 = call ptr @proto_item_add_subtree(ptr noundef %14, i32 noundef %15)
  store ptr %16, ptr %8, align 8
  %17 = load ptr, ptr %8, align 8
  %18 = load i32, ptr @hf_mausb_ep_handle_d, align 4
  %19 = load ptr, ptr %5, align 8
  %20 = load i32, ptr %6, align 4
  %21 = call ptr @proto_tree_add_item(ptr noundef %17, i32 noundef %18, ptr noundef %19, i32 noundef %20, i32 noundef 2, i32 noundef -2147483648)
  %22 = load ptr, ptr %8, align 8
  %23 = load i32, ptr @hf_mausb_ep_handle_ep_num, align 4
  %24 = load ptr, ptr %5, align 8
  %25 = load i32, ptr %6, align 4
  %26 = call ptr @proto_tree_add_item(ptr noundef %22, i32 noundef %23, ptr noundef %24, i32 noundef %25, i32 noundef 2, i32 noundef -2147483648)
  %27 = load ptr, ptr %8, align 8
  %28 = load i32, ptr @hf_mausb_ep_handle_dev_addr, align 4
  %29 = load ptr, ptr %5, align 8
  %30 = load i32, ptr %6, align 4
  %31 = call ptr @proto_tree_add_item(ptr noundef %27, i32 noundef %28, ptr noundef %29, i32 noundef %30, i32 noundef 2, i32 noundef -2147483648)
  %32 = load ptr, ptr %8, align 8
  %33 = load i32, ptr @hf_mausb_ep_handle_bus_num, align 4
  %34 = load ptr, ptr %5, align 8
  %35 = load i32, ptr %6, align 4
  %36 = call ptr @proto_tree_add_item(ptr noundef %32, i32 noundef %33, ptr noundef %34, i32 noundef %35, i32 noundef 2, i32 noundef -2147483648)
  call void @llvm.lifetime.end.p0(i64 8, ptr %8) #7
  call void @llvm.lifetime.end.p0(i64 8, ptr %7) #7
  ret i32 2
}

; Function Attrs: null_pointer_is_valid sspstrong uwtable
define internal zeroext i16 @dissect_mausb_mgmt_pkt_cancel_transfer(ptr noundef %0, ptr noundef %1, i32 noundef %2, i1 noundef zeroext %3) #1 {
  %5 = alloca i16, align 2
  %6 = alloca ptr, align 8
  %7 = alloca ptr, align 8
  %8 = alloca i32, align 4
  %9 = alloca i8, align 1
  %10 = alloca i8, align 1
  %11 = alloca i32, align 4
  store ptr %0, ptr %6, align 8
  store ptr %1, ptr %7, align 8
  store i32 %2, ptr %8, align 4
  %12 = zext i1 %3 to i8
  store i8 %12, ptr %9, align 1
  call void @llvm.lifetime.start.p0(i64 1, ptr %10) #7
  %13 = load ptr, ptr %6, align 8
  %14 = load ptr, ptr %7, align 8
  %15 = load i32, ptr %8, align 4
  %16 = call i32 @dissect_ep_handle(ptr noundef %13, ptr noundef %14, i32 noundef %15)
  %17 = load i32, ptr %8, align 4
  %18 = add i32 %17, %16
  store i32 %18, ptr %8, align 4
  %19 = load ptr, ptr %6, align 8
  %20 = load i32, ptr @hf_mausb_stream_id, align 4
  %21 = load ptr, ptr %7, align 8
  %22 = load i32, ptr %8, align 4
  %23 = call ptr @proto_tree_add_item(ptr noundef %19, i32 noundef %20, ptr noundef %21, i32 noundef %22, i32 noundef 2, i32 noundef -2147483648)
  %24 = load i32, ptr %8, align 4
  %25 = add i32 %24, 2
  store i32 %25, ptr %8, align 4
  %26 = load ptr, ptr %6, align 8
  %27 = load i32, ptr @hf_mausb_req_id, align 4
  %28 = load ptr, ptr %7, align 8
  %29 = load i32, ptr %8, align 4
  %30 = call ptr @proto_tree_add_item(ptr noundef %26, i32 noundef %27, ptr noundef %28, i32 noundef %29, i32 noundef 1, i32 noundef -2147483648)
  %31 = load i32, ptr %8, align 4
  %32 = add i32 %31, 1
  store i32 %32, ptr %8, align 4
  %33 = load i8, ptr %9, align 1, !range !8, !noundef !9
  %34 = trunc i8 %33 to i1
  br i1 %34, label %35, label %45

35:                                               ; preds = %4
  %36 = load ptr, ptr %6, align 8
  %37 = load i32, ptr @hf_mausb_cancel_transfer_rsvd, align 4
  %38 = load ptr, ptr %7, align 8
  %39 = load i32, ptr %8, align 4
  %40 = call ptr @proto_tree_add_item(ptr noundef %36, i32 noundef %37, ptr noundef %38, i32 noundef %39, i32 noundef 3, i32 noundef 0)
  %41 = load i32, ptr %8, align 4
  %42 = add i32 %41, 3
  store i32 %42, ptr %8, align 4
  %43 = load i32, ptr %8, align 4
  %44 = trunc i32 %43 to i16
  store i16 %44, ptr %5, align 2
  store i32 1, ptr %11, align 4
  br label %100

45:                                               ; preds = %4
  %46 = load ptr, ptr %7, align 8
  %47 = load i32, ptr %8, align 4
  %48 = call zeroext i8 @tvb_get_uint8(ptr noundef %46, i32 noundef %47)
  %49 = zext i8 %48 to i32
  %50 = or i32 %49, 7
  %51 = trunc i32 %50 to i8
  store i8 %51, ptr %10, align 1
  %52 = load ptr, ptr %6, align 8
  %53 = load i32, ptr @hf_mausb_cancel_transfer_status, align 4
  %54 = load ptr, ptr %7, align 8
  %55 = load i32, ptr %8, align 4
  %56 = call ptr @proto_tree_add_item(ptr noundef %52, i32 noundef %53, ptr noundef %54, i32 noundef %55, i32 noundef 3, i32 noundef -2147483648)
  %57 = load ptr, ptr %6, align 8
  %58 = load i32, ptr @hf_mausb_cancel_transfer_rsvd_2, align 4
  %59 = load ptr, ptr %7, align 8
  %60 = load i32, ptr %8, align 4
  %61 = call ptr @proto_tree_add_item(ptr noundef %57, i32 noundef %58, ptr noundef %59, i32 noundef %60, i32 noundef 3, i32 noundef -2147483648)
  %62 = load i32, ptr %8, align 4
  %63 = add i32 %62, 3
  store i32 %63, ptr %8, align 4
  %64 = load i8, ptr %10, align 1
  %65 = zext i8 %64 to i32
  %66 = icmp eq i32 2, %65
  br i1 %66, label %67, label %89

67:                                               ; preds = %45
  %68 = load ptr, ptr %6, align 8
  %69 = load i32, ptr @hf_mausb_cancel_transfer_seq_num, align 4
  %70 = load ptr, ptr %7, align 8
  %71 = load i32, ptr %8, align 4
  %72 = call ptr @proto_tree_add_item(ptr noundef %68, i32 noundef %69, ptr noundef %70, i32 noundef %71, i32 noundef 3, i32 noundef -2147483648)
  %73 = load i32, ptr %8, align 4
  %74 = add i32 %73, 3
  store i32 %74, ptr %8, align 4
  %75 = load ptr, ptr %6, align 8
  %76 = load i32, ptr @hf_mausb_cancel_transfer_rsvd, align 4
  %77 = load ptr, ptr %7, align 8
  %78 = load i32, ptr %8, align 4
  %79 = call ptr @proto_tree_add_item(ptr noundef %75, i32 noundef %76, ptr noundef %77, i32 noundef %78, i32 noundef 1, i32 noundef 0)
  %80 = load i32, ptr %8, align 4
  %81 = add i32 %80, 1
  store i32 %81, ptr %8, align 4
  %82 = load ptr, ptr %6, align 8
  %83 = load i32, ptr @hf_mausb_cancel_transfer_byte_offset, align 4
  %84 = load ptr, ptr %7, align 8
  %85 = load i32, ptr %8, align 4
  %86 = call ptr @proto_tree_add_item(ptr noundef %82, i32 noundef %83, ptr noundef %84, i32 noundef %85, i32 noundef 4, i32 noundef -2147483648)
  %87 = load i32, ptr %8, align 4
  %88 = add i32 %87, 4
  store i32 %88, ptr %8, align 4
  br label %97

89:                                               ; preds = %45
  %90 = load ptr, ptr %6, align 8
  %91 = load i32, ptr @hf_mausb_cancel_transfer_rsvd, align 4
  %92 = load ptr, ptr %7, align 8
  %93 = load i32, ptr %8, align 4
  %94 = call ptr @proto_tree_add_item(ptr noundef %90, i32 noundef %91, ptr noundef %92, i32 noundef %93, i32 noundef 8, i32 noundef 0)
  %95 = load i32, ptr %8, align 4
  %96 = add i32 %95, 8
  store i32 %96, ptr %8, align 4
  br label %97

97:                                               ; preds = %89, %67
  %98 = load i32, ptr %8, align 4
  %99 = trunc i32 %98 to i16
  store i16 %99, ptr %5, align 2
  store i32 1, ptr %11, align 4
  br label %100

100:                                              ; preds = %97, %35
  call void @llvm.lifetime.end.p0(i64 1, ptr %10) #7
  %101 = load i16, ptr %5, align 2
  ret i16 %101
}