; Function Attrs: null_pointer_is_valid sspstrong uwtable
define internal fastcc zeroext i16 @dissect_mausb_mgmt_pkt_cancel_transfer(ptr noundef %0, ptr noundef %1, i32 noundef range(i32 0, 65536) %2, i1 noundef zeroext %3) unnamed_addr #3 {
  %5 = load i32, ptr @hf_mausb_ep_handle, align 4
  %6 = tail call ptr @proto_tree_add_item(ptr noundef %0, i32 noundef %5, ptr noundef %1, i32 noundef range(i32 -32768, 65536) %2, i32 noundef 2, i32 noundef -2147483648)
  %7 = load i32, ptr @ett_mausb_ep_handle, align 4
  %8 = tail call ptr @proto_item_add_subtree(ptr noundef %6, i32 noundef %7)
  %9 = load i32, ptr @hf_mausb_ep_handle_d, align 4
  %10 = tail call ptr @proto_tree_add_item(ptr noundef %8, i32 noundef %9, ptr noundef %1, i32 noundef range(i32 -32768, 65536) %2, i32 noundef 2, i32 noundef -2147483648)
  %11 = load i32, ptr @hf_mausb_ep_handle_ep_num, align 4
  %12 = tail call ptr @proto_tree_add_item(ptr noundef %8, i32 noundef %11, ptr noundef %1, i32 noundef range(i32 -32768, 65536) %2, i32 noundef 2, i32 noundef -2147483648)
  %13 = load i32, ptr @hf_mausb_ep_handle_dev_addr, align 4
  %14 = tail call ptr @proto_tree_add_item(ptr noundef %8, i32 noundef %13, ptr noundef %1, i32 noundef range(i32 -32768, 65536) %2, i32 noundef 2, i32 noundef -2147483648)
  %15 = load i32, ptr @hf_mausb_ep_handle_bus_num, align 4
  %16 = tail call ptr @proto_tree_add_item(ptr noundef %8, i32 noundef %15, ptr noundef %1, i32 noundef range(i32 -32768, 65536) %2, i32 noundef 2, i32 noundef -2147483648)
  %17 = add nuw nsw i32 %2, 2
  %18 = load i32, ptr @hf_mausb_stream_id, align 4
  %19 = tail call ptr @proto_tree_add_item(ptr noundef %0, i32 noundef %18, ptr noundef %1, i32 noundef %17, i32 noundef 2, i32 noundef -2147483648)
  %20 = add nuw nsw i32 %2, 4
  %21 = load i32, ptr @hf_mausb_req_id, align 4
  %22 = tail call ptr @proto_tree_add_item(ptr noundef %0, i32 noundef %21, ptr noundef %1, i32 noundef %20, i32 noundef 1, i32 noundef -2147483648)
  %23 = add nuw nsw i32 %2, 5
  br i1 %3, label %24, label %27

24:                                               ; preds = %4
  %25 = load i32, ptr @hf_mausb_cancel_transfer_rsvd, align 4
  %26 = tail call ptr @proto_tree_add_item(ptr noundef %0, i32 noundef %25, ptr noundef %1, i32 noundef %23, i32 noundef 3, i32 noundef 0)
  br label %36

27:                                               ; preds = %4
  %28 = tail call zeroext i8 @tvb_get_uint8(ptr noundef %1, i32 noundef %23)
  %29 = load i32, ptr @hf_mausb_cancel_transfer_status, align 4
  %30 = tail call ptr @proto_tree_add_item(ptr noundef %0, i32 noundef %29, ptr noundef %1, i32 noundef %23, i32 noundef 3, i32 noundef -2147483648)
  %31 = load i32, ptr @hf_mausb_cancel_transfer_rsvd_2, align 4
  %32 = tail call ptr @proto_tree_add_item(ptr noundef %0, i32 noundef %31, ptr noundef %1, i32 noundef %23, i32 noundef 3, i32 noundef -2147483648)
  %33 = add nuw nsw i32 %2, 8
  %34 = load i32, ptr @hf_mausb_cancel_transfer_rsvd, align 4
  %35 = tail call ptr @proto_tree_add_item(ptr noundef %0, i32 noundef %34, ptr noundef %1, i32 noundef %33, i32 noundef 8, i32 noundef 0)
  br label %36

36:                                               ; preds = %27, %24
  %.sink46 = phi i16 [ 16, %27 ], [ 8, %24 ]
  %37 = trunc nuw i32 %2 to i16
  %38 = add i16 %.sink46, %37
  ret i16 %38
}